; Function Attrs: nounwind uwtable
define dso_local range(i32 0, 2) i32 @Curl_init_sslset_nolock(i32 noundef %0, ptr noundef %1, ptr noundef writeonly %2) local_unnamed_addr #2 {
  %.not = icmp eq ptr %2, null
  br i1 %.not, label %5, label %4

4:                                                ; preds = %3
  store ptr @available_backends, ptr %2, align 8
  br label %5

5:                                                ; preds = %4, %3
  %6 = load ptr, ptr @Curl_ssl, align 8
  %.not18 = icmp eq ptr %6, @Curl_ssl_multi
  br i1 %.not18, label %.preheader, label %14

.preheader:                                       ; preds = %5
  %7 = load ptr, ptr @available_backends, align 16
  %.not1929 = icmp eq ptr %7, null
  br i1 %.not1929, label %multissl_setup.exit, label %.lr.ph

.lr.ph:                                           ; preds = %.preheader
  %.not20 = icmp eq ptr %1, null
  br i1 %.not20, label %.lr.ph.split.us, label %.lr.ph.split

.lr.ph.split.us:                                  ; preds = %.lr.ph, %11
  %indvars.iv42 = phi i64 [ %indvars.iv.next43, %11 ], [ 0, %.lr.ph ]
  %8 = phi ptr [ %13, %11 ], [ %7, %.lr.ph ]
  %9 = load i32, ptr %8, align 8
  %10 = icmp eq i32 %9, %0
  br i1 %10, label %.loopexit, label %11

11:                                               ; preds = %.lr.ph.split.us
  %indvars.iv.next43 = add nuw nsw i64 %indvars.iv42, 1
  %12 = getelementptr inbounds nuw [2 x ptr], ptr @available_backends, i64 0, i64 %indvars.iv.next43
  %13 = load ptr, ptr %12, align 8
  %.not19.us = icmp eq ptr %13, null
  br i1 %.not19.us, label %multissl_setup.exit, label %.lr.ph.split.us, !llvm.loop !14

14:                                               ; preds = %5
  %15 = load i32, ptr %6, align 8
  %16 = icmp eq i32 %0, %15
  br i1 %16, label %multissl_setup.exit, label %17

17:                                               ; preds = %14
  %.not22 = icmp eq ptr %1, null
  br i1 %.not22, label %multissl_setup.exit, label %18

18:                                               ; preds = %17
  %19 = getelementptr inbounds nuw i8, ptr %6, i64 8
  %20 = load ptr, ptr %19, align 8
  %21 = tail call i32 @curl_strequal(ptr noundef nonnull %1, ptr noundef %20) #18
  %22 = icmp eq i32 %21, 0
  %23 = zext i1 %22 to i32
  br label %multissl_setup.exit

.lr.ph.split:                                     ; preds = %.lr.ph, %54
  %indvars.iv = phi i64 [ %indvars.iv.next, %54 ], [ 0, %.lr.ph ]
  %24 = phi ptr [ %56, %54 ], [ %7, %.lr.ph ]
  %25 = load i32, ptr %24, align 8
  %26 = icmp eq i32 %25, %0
  br i1 %26, label %.loopexit, label %27

27:                                               ; preds = %.lr.ph.split
  %28 = getelementptr inbounds nuw i8, ptr %24, i64 8
  %29 = load ptr, ptr %28, align 8
  %30 = tail call i32 @curl_strequal(ptr noundef %29, ptr noundef nonnull %1) #18
  %.not21 = icmp eq i32 %30, 0
  br i1 %.not21, label %54, label %thread-pre-split

thread-pre-split:                                 ; preds = %27
  %31 = getelementptr inbounds nuw [2 x ptr], ptr @available_backends, i64 0, i64 %indvars.iv
  %.pr = load ptr, ptr %31, align 8
  br label %.loopexit

.loopexit:                                        ; preds = %.lr.ph.split, %.lr.ph.split.us, %thread-pre-split
  %32 = phi ptr [ %.pr, %thread-pre-split ], [ %8, %.lr.ph.split.us ], [ %24, %.lr.ph.split ]
  %33 = load ptr, ptr @Curl_ssl, align 8
  %.not.i = icmp eq ptr %33, @Curl_ssl_multi
  br i1 %.not.i, label %34, label %multissl_setup.exit

34:                                               ; preds = %.loopexit
  %.not14.i = icmp eq ptr %32, null
  br i1 %.not14.i, label %36, label %35

35:                                               ; preds = %34
  store ptr %32, ptr @Curl_ssl, align 8
  br label %multissl_setup.exit

36:                                               ; preds = %34
  %37 = load ptr, ptr @available_backends, align 16
  %.not15.i = icmp eq ptr %37, null
  br i1 %.not15.i, label %multissl_setup.exit, label %38

38:                                               ; preds = %36
  %39 = tail call ptr @curl_getenv(ptr noundef nonnull @.str.14) #18
  %.not16.i = icmp eq ptr %39, null
  %40 = load ptr, ptr @available_backends, align 16
  %.not1720.i = icmp eq ptr %40, null
  %or.cond.i = select i1 %.not16.i, i1 true, i1 %.not1720.i
  br i1 %or.cond.i, label %.loopexit.i, label %.lr.ph.i

41:                                               ; preds = %.lr.ph.i
  %indvars.iv.next.i = add nuw nsw i64 %indvars.iv.i, 1
  %42 = getelementptr inbounds nuw [2 x ptr], ptr @available_backends, i64 0, i64 %indvars.iv.next.i
  %43 = load ptr, ptr %42, align 8
  %.not17.i = icmp eq ptr %43, null
  br i1 %.not17.i, label %.loopexit.loopexit.i, label %.lr.ph.i, !llvm.loop !5

.lr.ph.i:                                         ; preds = %38, %41
  %indvars.iv.i = phi i64 [ %indvars.iv.next.i, %41 ], [ 0, %38 ]
  %44 = phi ptr [ %43, %41 ], [ %40, %38 ]
  %45 = getelementptr inbounds nuw i8, ptr %44, i64 8
  %46 = load ptr, ptr %45, align 8
  %47 = tail call i32 @curl_strequal(ptr noundef nonnull %39, ptr noundef %46) #18
  %.not18.i = icmp eq i32 %47, 0
  br i1 %.not18.i, label %41, label %48

48:                                               ; preds = %.lr.ph.i
  %49 = getelementptr inbounds nuw [2 x ptr], ptr @available_backends, i64 0, i64 %indvars.iv.i
  %50 = load ptr, ptr %49, align 8
  store ptr %50, ptr @Curl_ssl, align 8
  %51 = load ptr, ptr @Curl_cfree, align 8
  tail call void %51(ptr noundef nonnull %39) #18
  br label %multissl_setup.exit

.loopexit.loopexit.i:                             ; preds = %41
  %.pre.i = load ptr, ptr @available_backends, align 16
  br label %.loopexit.i

.loopexit.i:                                      ; preds = %.loopexit.loopexit.i, %38
  %52 = phi ptr [ %.pre.i, %.loopexit.loopexit.i ], [ %40, %38 ]
  store ptr %52, ptr @Curl_ssl, align 8
  %53 = load ptr, ptr @Curl_cfree, align 8
  tail call void %53(ptr noundef %39) #18
  br label %multissl_setup.exit

54:                                               ; preds = %27
  %indvars.iv.next = add nuw nsw i64 %indvars.iv, 1
  %55 = getelementptr inbounds nuw [2 x ptr], ptr @available_backends, i64 0, i64 %indvars.iv.next
  %56 = load ptr, ptr %55, align 8
  %.not19 = icmp eq ptr %56, null
  br i1 %.not19, label %multissl_setup.exit, label %.lr.ph.split, !llvm.loop !14

multissl_setup.exit:                              ; preds = %54, %11, %.preheader, %.loopexit.i, %48, %36, %35, %.loopexit, %14, %18, %17
  %.013 = phi i32 [ 0, %14 ], [ 1, %17 ], [ %23, %18 ], [ 0, %.loopexit ], [ 0, %35 ], [ 0, %36 ], [ 0, %48 ], [ 0, %.loopexit.i ], [ 1, %.preheader ], [ 1, %11 ], [ 1, %54 ]
  ret i32 %.013
}